; Function Attrs: mustprogress uwtable
define void @_ZN7rocksdb19GetQueryTraceRecordC2EjRKNSt7__cxx1112basic_stringIcSt11char_traitsIcESaIcEEEm(ptr noundef nonnull align 8 dereferenceable(120) %this, i32 noundef %column_family_id, ptr noundef nonnull align 8 dereferenceable(32) %key, i64 noundef %timestamp) unnamed_addr #2 align 2 personality ptr @__gxx_personality_v0 {
entry:
  %timestamp_.i.i = getelementptr inbounds i8, ptr %this, i64 8
  store i64 %timestamp, ptr %timestamp_.i.i, align 8
  store ptr getelementptr inbounds ({ [9 x ptr] }, ptr @_ZTVN7rocksdb19GetQueryTraceRecordE, i64 0, i32 0, i64 2), ptr %this, align 8
  %cf_id_ = getelementptr inbounds i8, ptr %this, i64 16
  store i32 %column_family_id, ptr %cf_id_, align 8
  %key_ = getelementptr inbounds i8, ptr %this, i64 24
  store ptr @.str, ptr %key_, align 8
  %size_.i.i = getelementptr inbounds i8, ptr %this, i64 32
  store i64 0, ptr %size_.i.i, align 8
  %0 = getelementptr inbounds i8, ptr %this, i64 40
  tail call void @_ZN7rocksdb9CleanableC2Ev(ptr noundef nonnull align 8 dereferenceable(32) %0)
  %self_space_.i = getelementptr inbounds i8, ptr %this, i64 72
  tail call void @_ZNSt7__cxx1112basic_stringIcSt11char_traitsIcESaIcEEC1Ev(ptr noundef nonnull align 8 dereferenceable(32) %self_space_.i) #17
  %pinned_.i = getelementptr inbounds i8, ptr %this, i64 112
  store i8 0, ptr %pinned_.i, align 8
  %buf_.i = getelementptr inbounds i8, ptr %this, i64 104
  store ptr %self_space_.i, ptr %buf_.i, align 8
  %call.i = tail call noundef ptr @_ZNKSt7__cxx1112basic_stringIcSt11char_traitsIcESaIcEE4dataEv(ptr noundef nonnull align 8 dereferenceable(32) %key) #17
  %call2.i = tail call noundef i64 @_ZNKSt7__cxx1112basic_stringIcSt11char_traitsIcESaIcEE4sizeEv(ptr noundef nonnull align 8 dereferenceable(32) %key) #17
  %1 = load ptr, ptr %buf_.i, align 8
  %call3.i5 = invoke noundef nonnull align 8 dereferenceable(32) ptr @_ZNSt7__cxx1112basic_stringIcSt11char_traitsIcESaIcEE6assignEPKcm(ptr noundef nonnull align 8 dereferenceable(32) %1, ptr noundef %call.i, i64 noundef %call2.i)
          to label %invoke.cont5 unwind label %lpad3

invoke.cont5:                                     ; preds = %entry
  %2 = load ptr, ptr %buf_.i, align 8
  %call5.i = tail call noundef ptr @_ZNSt7__cxx1112basic_stringIcSt11char_traitsIcESaIcEE4dataEv(ptr noundef nonnull align 8 dereferenceable(32) %2) #17
  store ptr %call5.i, ptr %key_, align 8
  %3 = load ptr, ptr %buf_.i, align 8
  %call7.i = tail call noundef i64 @_ZNKSt7__cxx1112basic_stringIcSt11char_traitsIcESaIcEE4sizeEv(ptr noundef nonnull align 8 dereferenceable(32) %3) #17
  store i64 %call7.i, ptr %size_.i.i, align 8
  ret void

lpad3:                                            ; preds = %entry
  %4 = landingpad { ptr, i32 }
          cleanup
  tail call void @_ZNSt7__cxx1112basic_stringIcSt11char_traitsIcESaIcEED1Ev(ptr noundef nonnull align 8 dereferenceable(32) %self_space_.i) #17
  tail call void @_ZN7rocksdb9CleanableD2Ev(ptr noundef nonnull align 8 dereferenceable(32) %0) #17
  resume { ptr, i32 } %4
}